; Function Attrs: mustprogress nofree norecurse nosync nounwind willreturn memory(argmem: readwrite) uwtable
define void @_ZN6icu_775Edits8Iterator21updatePreviousIndexesEv(ptr noundef nonnull align 8 captures(none) dereferenceable(48) %0) local_unnamed_addr #11 align 2 {
  %2 = getelementptr inbounds nuw i8, ptr %0, i64 24
  %3 = load i32, ptr %2, align 8, !tbaa !35
  %4 = getelementptr inbounds nuw i8, ptr %0, i64 32
  %5 = load i32, ptr %4, align 8, !tbaa !44
  %6 = sub nsw i32 %5, %3
  store i32 %6, ptr %4, align 8, !tbaa !44
  %7 = getelementptr inbounds nuw i8, ptr %0, i64 23
  %8 = load i8, ptr %7, align 1, !tbaa !38
  %.not = icmp eq i8 %8, 0
  %.phi.trans.insert = getelementptr inbounds nuw i8, ptr %0, i64 28
  %.pre = load i32, ptr %.phi.trans.insert, align 4, !tbaa !36
  br i1 %.not, label %._crit_edge, label %9

9:                                                ; preds = %1
  %10 = getelementptr inbounds nuw i8, ptr %0, i64 36
  %11 = load i32, ptr %10, align 4, !tbaa !45
  %12 = sub nsw i32 %11, %.pre
  store i32 %12, ptr %10, align 4, !tbaa !45
  br label %._crit_edge

._crit_edge:                                      ; preds = %1, %9
  %13 = getelementptr inbounds nuw i8, ptr %0, i64 40
  %14 = load i32, ptr %13, align 8, !tbaa !46
  %15 = sub nsw i32 %14, %.pre
  store i32 %15, ptr %13, align 8, !tbaa !46
  ret void
}